target datalayout = "e-m:e-p270:32:32-p271:32:32-p272:64:64-i64:64-i128:128-f80:128-n8:16:32:64-S128"
target triple = "x86_64-pc-linux-gnu"

%struct.ipc_client_connection = type { i32 }

; Function Attrs: nounwind uwtable
define dso_local void @ipc_client_close_connection(ptr noundef %0) #0 {
  %2 = alloca ptr, align 8
  store ptr %0, ptr %2, align 8, !tbaa !11
  %3 = load ptr, ptr %2, align 8, !tbaa !11
  %4 = icmp ne ptr %3, null
  br i1 %4, label %6, label %5

5:                                                ; preds = %1
  br label %18

6:                                                ; preds = %1
  %7 = load ptr, ptr %2, align 8, !tbaa !11
  %8 = getelementptr inbounds nuw %struct.ipc_client_connection, ptr %7, i32 0, i32 0
  %9 = load i32, ptr %8, align 4, !tbaa !21
  %10 = icmp ne i32 %9, -1
  br i1 %10, label %11, label %16

11:                                               ; preds = %6
  %12 = load ptr, ptr %2, align 8, !tbaa !11
  %13 = getelementptr inbounds nuw %struct.ipc_client_connection, ptr %12, i32 0, i32 0
  %14 = load i32, ptr %13, align 4, !tbaa !21
  %15 = call i32 @close(i32 noundef %14)
  br label %16

16:                                               ; preds = %11, %6
  %17 = load ptr, ptr %2, align 8, !tbaa !11
  call void @free(ptr noundef %17) #10
  br label %18

18:                                               ; preds = %16, %5
  ret void
}