; Function Attrs: nounwind uwtable
define dso_local void @ipc_client_close_connection(ptr noundef %0) local_unnamed_addr #0 {
  %.not = icmp eq ptr %0, null
  br i1 %.not, label %7, label %2

2:                                                ; preds = %1
  %3 = load i32, ptr %0, align 4, !tbaa !15
  %.not5 = icmp eq i32 %3, -1
  br i1 %.not5, label %6, label %4

4:                                                ; preds = %2
  %5 = tail call i32 @close(i32 noundef %3) #13
  br label %6

6:                                                ; preds = %4, %2
  tail call void @free(ptr noundef nonnull %0) #13
  br label %7

7:                                                ; preds = %1, %6
  ret void
}